((lp1
F-32.413671348546551
aF-7.9701801757335398
aF18.251879659844427
aF-6.8793053995260385
aF-5.8640970839402522
aF-8.7619914509461676
aF-8.3940154334397636
aF-7.9268603879394881
aF-8.0721803993065677
aF-9.3080861470421556
aF-8.2797673001030319
aF-6.4007377371900818
aF-0.25904004824400517
aF-8.8306042243111698
aF-12.55803398896067
aF-14.456451111791777
aF-14.765399012443872
aF-14.124596042354062
aF-11.597215938803659
aF-11.309048196859138
aF-8.7927297955799677
aF-3.7297819423606242
a(lp2
(lp3
F0.00040965822131646963
aF0.0044894855447047801
aF0.0010719364567231232
aF0.00023507066587246693
aF-0.00037249496148333979
aF0.00074762444693396728
aF0.0005850828593032863
aF0.00031256416839269382
aF4.1462322819163359e-05
aF0.00010834219772538396
aF-0.00014462892185263025
aF-0.00078555772266510938
aF-0.00055168977087194132
aF-0.00052786882211520536
aF0.00030693158539094484
aF0.00076670589029467404
aF0.00065585047893825074
aF0.00015475807187076608
aF-0.00015146154980343702
aF-0.00046200569164935262
aF0.0001061237129804026
aF-7.2869627799901728e-05
aa(lp4
F0.0044894855447047801
aF0.049395227453382422
aF0.01180262698081974
aF0.0025833142239469853
aF-0.0041039277019535858
aF0.0081794151068857093
aF0.0063273063460354204
aF0.003430751721158881
aF0.00043662574910342084
aF0.0011679926569606279
aF-0.0015771771221374737
aF-0.0086457041402409063
aF-0.0060553800035547311
aF-0.0058272064537887381
aF0.0033604118461876445
aF0.0083727948782523348
aF0.0072120446463930449
aF0.0017066462861906938
aF-0.001636931465294885
aF-0.0050534138247319681
aF0.0011841043047511829
aF-0.0007933088417358858
aa(lp5
F0.0010719364567231232
aF0.01180262698081974
aF0.0028205589766969021
aF0.00061713244202917558
aF-0.00098088555652405289
aF0.0019523605320318407
aF0.0015068515940215392
aF0.00081943578143993888
aF0.00010349420147811496
aF0.00027797865984631909
aF-0.00037624413866419918
aF-0.0020658984887481561
aF-0.0014462547414277797
aF-0.0013932774527612378
aF0.000802200915121305
aF0.0019977856575376001
aF0.0017230443528886107
aF0.00040796386004464397
aF-0.00038977428468844362
aF-0.0012061129576993539
aF0.0002837408014271982
aF-0.00018918480140165926
aa(lp6
F0.00023507066587246693
aF0.0025833142239469853
aF0.00061713244202917558
aF0.0001351524191728313
aF-0.00021455142948872502
aF0.00042849649393352667
aF0.00033259802823221391
aF0.00017956312555746732
aF2.3147840806930984e-05
aF6.1451055111309862e-05
aF-8.270771311883592e-05
aF-0.00045210817341403774
aF-0.00031691906596022619
aF-0.00030446531379834155
aF0.00017600235938016248
aF0.00043885784402530761
aF0.00037723186955162982
aF8.9194050225961696e-05
aF-8.6059103445112106e-05
aF-0.00026474268051951356
aF6.1687386816407621e-05
aF-4.1621635078948841e-05
aa(lp7
F-0.00037249496148333979
aF-0.0041039277019535858
aF-0.00098088555652405289
aF-0.00021455142948872502
aF0.00034118814052359978
aF-0.00067828344177201828
aF-0.0005223779335225419
aF-0.00028489543169927248
aF-3.5790291661092502e-05
aF-9.629838551748998e-05
aF0.00013066949036935616
aF0.00071830351628294359
aF0.00050271600179403243
aF0.00048477782448204414
aF-0.00027871388504493988
aF-0.0006938013329401458
aF-0.00059900538757720839
aF-0.00014190192723296244
aF0.00013508637297892859
aF0.00041894475122249218
aF-9.8980266323824435e-05
aF6.5681463543940005e-05
aa(lp8
F0.00074762444693396728
aF0.0081794151068857093
aF0.0019523605320318407
aF0.00042849649393352667
aF-0.00067828344177201828
aF0.0013654178568505526
aF0.0010737290581134262
aF0.00057009539559638438
aF7.6973180478970889e-05
aF0.00019907564134093083
aF-0.00026452344588429229
aF-0.0014309768377571202
aF-0.0010061790008744137
aF-0.00096038536073912706
aF0.00056037939678273271
aF0.0014013260987332781
aF0.0011951317291483896
aF0.00028167142348290157
aF-0.00027801722998008313
aF-0.00084382419950252232
aF0.00019223670540325581
aF-0.00013336880711019663
aa(lp9
F0.0005850828593032863
aF0.0063273063460354204
aF0.0015068515940215392
aF0.00033259802823221391
aF-0.0005223779335225419
aF0.0010737290581134262
aF0.00087303106586907563
aF0.00044382854133000183
aF6.6736450024064854e-05
aF0.00016332447703153218
aF-0.00020986853312168676
aF-0.0011062389400816977
aF-0.0007837749150431826
aF-0.00073528715806172673
aF0.00043981695554262267
aF0.0011080620410802095
aF0.00092627682384601958
aF0.00021640974609961848
aF-0.00022652745663275008
aF-0.00066427598978048997
aF0.00014199898609424983
aF-0.00010633371584285191
aa(lp10
F0.00031256416839269382
aF0.003430751721158881
aF0.00081943578143993888
aF0.00017956312555746732
aF-0.00028489543169927248
aF0.00057009539559638438
aF0.00044382854133000183
aF0.00023876732821106773
aF3.1259094993625576e-05
aF8.2049172835786129e-05
aF-0.0001101884836351883
aF-0.0006002430394519328
aF-0.00042123373338554849
aF-0.00040403585237313027
aF0.00023408432389852006
aF0.00058410850708517784
aF0.00050094846883644881
aF0.00011836302780015792
aF-0.00011482464572891223
aF-0.00035214656817958651
aF8.1745665179065377e-05
aF-5.5471607074277971e-05
aa(lp11
F4.1462322819163359e-05
aF0.00043662574910342084
aF0.00010349420147811496
aF2.3147840806930984e-05
aF-3.5790291661092502e-05
aF7.6973180478970889e-05
aF6.6736450024064854e-05
aF3.1259094993625576e-05
aF5.9076767095756193e-06
aF1.2663433518409644e-05
aF-1.539511676025378e-05
aF-7.6048452677797185e-05
aF-5.5019169237501464e-05
aF-4.966662650800034e-05
aF3.1356187262446885e-05
aF8.0248623372842489e-05
aF6.4037708266291845e-05
aF1.4686541136778997e-05
aF-1.7337374114582385e-05
aF-4.7577439874641847e-05
aF8.9745427214389965e-06
aF-7.8717055699057575e-06
aa(lp12
F0.00010834219772538396
aF0.0011679926569606279
aF0.00027797865984631909
aF6.1451055111309862e-05
aF-9.629838551748998e-05
aF0.00019907564134093083
aF0.00016332447703153218
aF8.2049172835786129e-05
aF1.2663433518409644e-05
aF3.0629453980890106e-05
aF-3.8995762484365796e-05
aF-0.00020419079584529606
aF-0.00014494706583484309
aF-0.00013532972343579543
aF8.1507279212364686e-05
aF0.00020575915123989389
aF0.00017109469040028127
aF3.9875097422647959e-05
aF-4.2407499024739014e-05
aF-0.00012321386453455522
aF2.584657193760361e-05
aF-1.9785004534836836e-05
aa(lp13
F-0.00014462892185263025
aF-0.0015771771221374737
aF-0.00037624413866419918
aF-8.270771311883592e-05
aF0.00013066949036935616
aF-0.00026452344588429229
aF-0.00020986853312168676
aF-0.0001101884836351883
aF-1.539511676025378e-05
aF-3.8995762484365796e-05
aF5.1395924574298068e-05
aF0.00027581189609253052
aF0.00019441352346236056
aF0.00018470970315417418
aF-0.00010848945461348816
aF-0.00027184937067146651
aF-0.0002305110502292031
aF-5.4206397024993139e-05
aF5.4354653158020076e-05
aF0.00016346771525573185
aF-3.6693698723944178e-05
aF2.5945520125948181e-05
aa(lp14
F-0.00078555772266510938
aF-0.0086457041402409063
aF-0.0020658984887481561
aF-0.00045210817341403774
aF0.00071830351628294359
aF-0.0014309768377571202
aF-0.0011062389400816977
aF-0.0006002430394519328
aF-7.6048452677797185e-05
aF-0.00020419079584529606
aF0.00027581189609253052
aF0.0015134355733838567
aF0.0010596379340858384
aF0.0010200880044716322
aF-0.00058796128379241493
aF-0.001464712209804207
aF-0.0012624046424498355
aF-0.00029877619266161089
aF0.00028621902536815435
aF0.00088418928235098847
aF-0.00020728577587786611
aF0.00013872065129735069
aa(lp15
F-0.00055168977087194132
aF-0.0060553800035547311
aF-0.0014462547414277797
aF-0.00031691906596022619
aF0.00050271600179403243
aF-0.0010061790008744137
aF-0.0007837749150431826
aF-0.00042123373338554849
aF-5.5019169237501464e-05
aF-0.00014494706583484309
aF0.00019441352346236056
aF0.0010596379340858384
aF0.00074342944840579458
aF0.00071295641818495991
aF-0.00041318560857611316
aF-0.001031081355944027
aF-0.00088437591648112999
aF-0.00020892336948607148
aF0.00020283442805406484
aF0.00062168731125878426
aF-0.00014399651204079444
aF9.7886156446848509e-05
aa(lp16
F-0.00052786882211520536
aF-0.0058272064537887381
aF-0.0013932774527612378
aF-0.00030446531379834155
aF0.00048477782448204414
aF-0.00096038536073912706
aF-0.00073528715806172673
aF-0.00040403585237313027
aF-4.966662650800034e-05
aF-0.00013532972343579543
aF0.00018470970315417418
aF0.0010200880044716322
aF0.00071295641818495991
aF0.00068947057116381457
aF-0.00039477704522641432
aF-0.00098145284471341148
aF-0.00085031190275086481
aF-0.00020171915223058987
aF0.00019008562928644651
aF0.00059312188453225891
aF-0.00014150103180432516
aF9.2767150868740055e-05
aa(lp17
F0.00030693158539094484
aF0.0033604118461876445
aF0.000802200915121305
aF0.00017600235938016248
aF-0.00027871388504493988
aF0.00056037939678273271
aF0.00043981695554262267
aF0.00023408432389852006
aF3.1356187262446885e-05
aF8.1507279212364686e-05
aF-0.00010848945461348816
aF-0.00058796128379241493
aF-0.00041318560857611316
aF-0.00039477704522641432
aF0.00023002112580600733
aF0.00057495076313593136
aF0.00049098471060245522
aF0.00011577165424252027
aF-0.00011387680908037931
aF-0.00034632428034172635
aF7.9140344578452636e-05
aF-5.4684262831380338e-05
aa(lp18
F0.00076670589029467404
aF0.0083727948782523348
aF0.0019977856575376001
aF0.00043885784402530761
aF-0.0006938013329401458
aF0.0014013260987332781
aF0.0011080620410802095
aF0.00058410850708517784
aF8.0248623372842489e-05
aF0.00020575915123989389
aF-0.00027184937067146651
aF-0.001464712209804207
aF-0.001031081355944027
aF-0.00098145284471341148
aF0.00057495076313593136
aF0.0014394949063795738
aF0.0012238053468188849
aF0.00028802461308967799
aF-0.00028702195425993598
aF-0.00086621154918422281
aF0.00019530591999347333
aF-0.00013717410140339902
aa(lp19
F0.00065585047893825074
aF0.0072120446463930449
aF0.0017230443528886107
aF0.00037723186955162982
aF-0.00059900538757720839
aF0.0011951317291483896
aF0.00092627682384601958
aF0.00050094846883644881
aF6.4037708266291845e-05
aF0.00017109469040028127
aF-0.0002305110502292031
aF-0.0012624046424498355
aF-0.00088437591648112999
aF-0.00085031190275086481
aF0.00049098471060245522
aF0.0012238053468188849
aF0.0010532068125442284
aF0.0002491099057831552
aF-0.00023969579450359361
aF-0.00073851372288661092
aF0.0001723730866188645
aF-0.00011598029342579921
aa(lp20
F0.00015475807187076608
aF0.0017066462861906938
aF0.00040796386004464397
aF8.9194050225961696e-05
aF-0.00014190192723296244
aF0.00028167142348290157
aF0.00021640974609961848
aF0.00011836302780015792
aF1.4686541136778997e-05
aF3.9875097422647959e-05
aF-5.4206397024993139e-05
aF-0.00029877619266161089
aF-0.00020892336948607148
aF-0.00020171915223058987
aF0.00011577165424252027
aF0.00028802461308967799
aF0.0002491099057831552
aF5.9045635112681435e-05
aF-5.5968269894391358e-05
aF-0.00017400433995479067
aF4.123455568912009e-05
aF-2.7238918041791762e-05
aa(lp21
F-0.00015146154980343702
aF-0.001636931465294885
aF-0.00038977428468844362
aF-8.6059103445112106e-05
aF0.00013508637297892859
aF-0.00027801722998008313
aF-0.00022652745663275008
aF-0.00011482464572891223
aF-1.7337374114582385e-05
aF-4.2407499024739014e-05
aF5.4354653158020076e-05
aF0.00028621902536815435
aF0.00020283442805406484
aF0.00019008562928644651
aF-0.00011387680908037931
aF-0.00028702195425993598
aF-0.00023969579450359361
aF-5.5968269894391358e-05
aF5.8795729972693669e-05
aF0.00017204055696613796
aF-3.6589925157246884e-05
aF2.7549835351473707e-05
aa(lp22
F-0.00046200569164935262
aF-0.0050534138247319681
aF-0.0012061129576993539
aF-0.00026474268051951356
aF0.00041894475122249218
aF-0.00084382419950252232
aF-0.00066427598978048997
aF-0.00035214656817958651
aF-4.7577439874641847e-05
aF-0.00012321386453455522
aF0.00016346771525573185
aF0.00088418928235098847
aF0.00062168731125878426
aF0.00059312188453225891
aF-0.00034632428034172635
aF-0.00086621154918422281
aF-0.00073851372288661092
aF-0.00017400433995479067
aF0.00017204055696613796
aF0.00052159391699594336
aF-0.00011849358081450804
aF8.2433112192179268e-05
aa(lp23
F0.0001061237129804026
aF0.0011841043047511829
aF0.0002837408014271982
aF6.1687386816407621e-05
aF-9.8980266323824435e-05
aF0.00019223670540325581
aF0.00014199898609424983
aF8.1745665179065377e-05
aF8.9745427214389965e-06
aF2.584657193760361e-05
aF-3.6693698723944178e-05
aF-0.00020728577587786611
aF-0.00014399651204079444
aF-0.00014150103180432516
aF7.9140344578452636e-05
aF0.00019530591999347333
aF0.0001723730866188645
aF4.123455568912009e-05
aF-3.6589925157246884e-05
aF-0.00011849358081450804
aF3.0064245373972418e-05
aF-1.8331887199459743e-05
aa(lp24
F-7.2869627799901728e-05
aF-0.0007933088417358858
aF-0.00018918480140165926
aF-4.1621635078948841e-05
aF6.5681463543940005e-05
aF-0.00013336880711019663
aF-0.00010633371584285191
aF-5.5471607074277971e-05
aF-7.8717055699057575e-06
aF-1.9785004534836836e-05
aF2.5945520125948181e-05
aF0.00013872065129735069
aF9.7886156446848509e-05
aF9.2767150868740055e-05
aF-5.4684262831380338e-05
aF-0.00013717410140339902
aF-0.00011598029342579921
aF-2.7238918041791762e-05
aF2.7549835351473707e-05
aF8.2433112192179268e-05
aF-1.8331887199459743e-05
aF1.3107765955801045e-05
aat.