((lp1
F0.076467092102253706
aF-13.594286119593262
aF-0.049935485336472123
aF0.29150066485671866
aF-0.021941893591626963
aF-0.43975772153988818
aF-0.075739942817883238
aF-0.013226616337272587
aF0.34737342350286843
aF-0.047233589228393644
aF-0.010007836219785741
aF-0.13704745595216702
aF0.27507130354665449
aF-0.022144928836551267
aF-0.03909541469499582
aF-0.44289215171909174
aF-0.49960051516554027
aF-0.34674928569429919
aF0.02037030370990181
aF0.03638747113175457
aF0.047749152698062312
aF0.27997983944606147
a(lp2
(lp3
F0.024896638261935132
aF-1.6622942075469487e-06
aF-0.00081356261536741446
aF0.046243069093156661
aF-0.021761139199281319
aF-0.024090652697708482
aF-0.021652618962126835
aF-0.021027495905339727
aF0.052616754087524725
aF0.02185479372279046
aF-0.0082598265971132647
aF-0.011622842682319175
aF0.033781982009404347
aF-0.013141240678730914
aF-0.020193365561424821
aF-0.020926280586083097
aF-0.020001270604537175
aF-0.013293607290152656
aF0.039886949084488324
aF0.0037996871664981698
aF0.0045912767126374673
aF0.010079064066545332
aa(lp4
F-1.6622942075469487e-06
aF1.1133382165166216e-10
aF5.76674958834861e-08
aF-3.094211073971832e-06
aF1.4530948935911474e-06
aF1.6116006934528702e-06
aF1.4418335817951093e-06
aF1.4062777750779043e-06
aF-3.52446304736545e-06
aF-1.4560612608376523e-06
aF5.5575609930895964e-07
aF7.7595348295420124e-07
aF-2.2605882977511228e-06
aF8.7913055732186095e-07
aF1.3492828485134417e-06
aF1.3973879683589865e-06
aF1.3398179330170324e-06
aF8.9169673859069409e-07
aF-2.6705590784278273e-06
aF-2.5349381913876095e-07
aF-3.0526642715891454e-07
aF-6.7620215868832658e-07
aa(lp5
F-0.00081356261536741446
aF5.76674958834861e-08
aF5.8993074883634256e-05
aF-0.0015755538803538926
aF0.00071258470454680463
aF0.00081743178828964404
aF0.0006701232242602214
aF0.00070955981593218186
aF-0.0018292731029937691
aF-0.00068379866725048252
aF0.00031118827146271039
aF0.00037902728246928612
aF-0.0011526642050942101
aF0.00044606228621201817
aF0.0006697187989084442
aF0.00068561260970467764
aF0.00069597990366769297
aF0.00047424300711648541
aF-0.0013749358115665057
aF-0.00012226450240264148
aF-0.00013766038447246033
aF-0.00036076391270913923
aa(lp6
F0.046243069093156661
aF-3.094211073971832e-06
aF-0.0015755538803538926
aF0.086020236885327284
aF-0.040422091399177212
aF-0.044806097374091552
aF-0.040143236096165109
aF-0.039101133525293263
aF0.097949113648494762
aF0.040532783869010117
aF-0.015423934922190182
aF-0.021586790146290651
aF0.062843734972481108
aF-0.024441651130313026
aF-0.03752675345578322
aF-0.038872099307233579
aF-0.037234649862111405
aF-0.024770711270306799
aF0.074228465000053284
aF0.0070536225870010847
aF0.0085031343737373422
aF0.018783344073407586
aa(lp7
F-0.021761139199281319
aF1.4530948935911474e-06
aF0.00071258470454680463
aF-0.040422091399177212
aF0.019020622751420642
aF0.021058052109679523
aF0.018923935609642395
aF0.018380303071135706
aF-0.045995162083793686
aF-0.0191009860688152
aF0.0072214645209763501
aF0.010158996592388137
aF-0.029529663316200452
aF0.011486991384927658
aF0.017650671597525369
aF0.018290889742866412
aF0.017484265147865059
aF0.011621269796476321
aF-0.034866796299863834
aF-0.003321137257678717
aF-0.0040125322592059233
aF-0.0088111331469617731
aa(lp8
F-0.024090652697708482
aF1.6116006934528702e-06
aF0.00081743178828964404
aF-0.044806097374091552
aF0.021058052109679523
aF0.023338924675092389
aF0.020916755883186054
aF0.020367677722023178
aF-0.051015819511580296
aF-0.021118977628838811
aF0.0080309130464517129
aF0.011245843124935942
aF-0.032733790993340707
aF0.012731328678377904
aF0.019548828435877044
aF0.020250501707100649
aF0.019393284914268245
aF0.012900396428762475
aF-0.038662358961385049
aF-0.003674922651830944
aF-0.0044311173123322027
aF-0.0097820476920773905
aa(lp9
F-0.021652618962126835
aF1.4418335817951093e-06
aF0.0006701232242602214
aF-0.040143236096165109
aF0.018923935609642395
aF0.020916755883186054
aF0.018874554867869736
aF0.018261718016726193
aF-0.045633939032249396
aF-0.019042207528033765
aF0.007135905806578597
aF0.010109314453453663
aF-0.029323925607784539
aF0.011409721701955179
aF0.017550786588302256
aF0.018197532090070277
aF0.017346132171866247
aF0.011515396866525199
aF-0.034607128931106269
aF-0.0033067136830361708
aF-0.0040072746452010956
aF-0.0087294996950832947
aa(lp10
F-0.021027495905339727
aF1.4062777750779043e-06
aF0.00070955981593218186
aF-0.039101133525293263
aF0.018380303071135706
aF0.020367677722023178
aF0.018261718016726193
aF0.0177751784373512
aF-0.044515755289040851
aF-0.018437363694272922
aF0.0070047584391640556
aF0.0098160220684314764
aF-0.028565735560995679
aF0.011110500977831533
aF0.017061965747093608
aF0.01767540731014354
aF0.016922246020868083
aF0.011255241026048742
aF-0.033737713990904666
aF-0.0032078569922560697
aF-0.0038691808227345591
aF-0.0085344349816042931
aa(lp11
F0.052616754087524725
aF-3.52446304736545e-06
aF-0.0018292731029937691
aF0.097949113648494762
aF-0.045995162083793686
aF-0.051015819511580296
aF-0.045633939032249396
aF-0.044515755289040851
aF0.11157344548268661
aF0.046085159068118574
aF-0.017596401111823909
aF-0.024561212266866986
aF0.0715604920725499
aF-0.02782922413928024
aF-0.042710194538253761
aF-0.044231869855815148
aF-0.042414545658629239
aF-0.028229828375533589
aF0.084540090835238141
aF0.008023708777035116
aF0.0096611783252194341
aF0.021407689552398832
aa(lp12
F0.02185479372279046
aF-1.4560612608376523e-06
aF-0.00068379866725048252
aF0.040532783869010117
aF-0.0191009860688152
aF-0.021118977628838811
aF-0.019042207528033765
aF-0.018437363694272922
aF0.046085159068118574
aF0.019213051767384883
aF-0.0072119788083542836
aF-0.01020351590870916
aF0.02960887181508421
aF-0.011520067332692356
aF-0.017716926625815223
aF-0.018367853130345144
aF-0.017517812845311793
aF-0.011632062856075957
aF0.034946607998670366
aF0.0033371952579066329
aF0.004041889085640943
aF0.0088181935986882086
aa(lp13
F-0.0082598265971132647
aF5.5575609930895964e-07
aF0.00031118827146271039
aF-0.015423934922190182
aF0.0072214645209763501
aF0.0080309130464517129
aF0.007135905806578597
aF0.0070047584391640556
aF-0.017596401111823909
aF-0.0072119788083542836
aF0.0027929136856769902
aF0.0038550665486590556
aF-0.011269785678166897
aF0.0043809960496937429
aF0.0067119901248969722
aF0.0069448923486556905
aF0.0066897051466902144
aF0.0044610815740246555
aF-0.013324234760956059
aF-0.0012581546821406387
aF-0.0015074405173579452
aF-0.0033838877692665688
aa(lp14
F-0.011622842682319175
aF7.7595348295420124e-07
aF0.00037902728246928612
aF-0.021586790146290651
aF0.010158996592388137
aF0.011245843124935942
aF0.010109314453453663
aF0.0098160220684314764
aF-0.024561212266866986
aF-0.01020351590870916
aF0.0038550665486590556
aF0.0054260917209249214
aF-0.015769765482732956
aF0.0061345045436294885
aF0.009426896100004729
aF0.0097692680340664348
aF0.0093364305696799852
aF0.0062050423785542357
aF-0.018619303834316116
aF-0.001773841836601875
aF-0.0021436595702531711
aF-0.0047046008692996208
aa(lp15
F0.033781982009404347
aF-2.2605882977511228e-06
aF-0.0011526642050942101
aF0.062843734972481108
aF-0.029529663316200452
aF-0.032733790993340707
aF-0.029323925607784539
aF-0.028565735560995679
aF0.0715604920725499
aF0.02960887181508421
aF-0.011269785678166897
aF-0.015769765482732956
aF0.045911785695958218
aF-0.017856236799942658
aF-0.027414959811183109
aF-0.028397352566472394
aF-0.027203251140386041
aF-0.018097836459898264
aF0.054229849078932489
aF0.0051528130389856897
aF0.0062111791173717554
aF0.013723428724402655
aa(lp16
F-0.013141240678730914
aF8.7913055732186095e-07
aF0.00044606228621201817
aF-0.024441651130313026
aF0.011486991384927658
aF0.012731328678377904
aF0.011409721701955179
aF0.011110500977831533
aF-0.02782922413928024
aF-0.011520067332692356
aF0.0043809960496937429
aF0.0061345045436294885
aF-0.017856236799942658
aF0.0069449108004373348
aF0.010663764192735053
aF0.011046480229499063
aF0.010579077567540649
aF0.0070372519673533281
aF-0.021090329952042672
aF-0.002004631228130032
aF-0.0024170766153685341
aF-0.0053361763677319228
aa(lp17
F-0.020193365561424821
aF1.3492828485134417e-06
aF0.0006697187989084442
aF-0.03752675345578322
aF0.017650671597525369
aF0.019548828435877044
aF0.017550786588302256
aF0.017061965747093608
aF-0.042710194538253761
aF-0.017716926625815223
aF0.0067119901248969722
aF0.009426896100004729
aF-0.027414959811183109
aF0.010663764192735053
aF0.016381606327766893
aF0.016973598906646292
aF0.01623569383147349
aF0.010794425908585687
aF-0.032373540170452339
aF-0.003081355827382629
aF-0.0037202057401672694
aF-0.0081845497105009629
aa(lp18
F-0.020926280586083097
aF1.3973879683589865e-06
aF0.00068561260970467764
aF-0.038872099307233579
aF0.018290889742866412
aF0.020250501707100649
aF0.018197532090070277
aF0.01767540731014354
aF-0.044231869855815148
aF-0.018367853130345144
aF0.0069448923486556905
aF0.0097692680340664348
aF-0.028397352566472394
aF0.011046480229499063
aF0.016973598906646292
aF0.017589192785411129
aF0.01681393729640427
aF0.011175822029800178
aF-0.033530008888614515
aF-0.0031936159555437187
aF-0.0038583912261380077
aF-0.0084734597957189881
aa(lp19
F-0.020001270604537175
aF1.3398179330170324e-06
aF0.00069597990366769297
aF-0.037234649862111405
aF0.017484265147865059
aF0.019393284914268245
aF0.017346132171866247
aF0.016922246020868083
aF-0.042414545658629239
aF-0.017517812845311793
aF0.0066897051466902144
aF0.0093364305696799852
aF-0.027203251140386041
aF0.010579077567540649
aF0.01623569383147349
aF0.01681393729640427
aF0.016123935119323855
aF0.010731867435985129
aF-0.032137595352788123
aF-0.0030501466463891207
aF-0.0036723695111407408
aF-0.0081383138743489607
aa(lp20
F-0.013293607290152656
aF8.9169673859069409e-07
aF0.00047424300711648541
aF-0.024770711270306799
aF0.011621269796476321
aF0.012900396428762475
aF0.011515396866525199
aF0.011255241026048742
aF-0.028229828375533589
aF-0.011632062856075957
aF0.0044610815740246555
aF0.0062050423785542357
aF-0.018097836459898264
aF0.0070372519673533281
aF0.010794425908585687
aF0.011175822029800178
aF0.010731867435985129
aF0.0071471991272087105
aF-0.021385564972308407
aF-0.0020266385411402193
aF-0.0024364007322784723
aF-0.0054203316740750618
aa(lp21
F0.039886949084488324
aF-2.6705590784278273e-06
aF-0.0013749358115665057
aF0.074228465000053284
aF-0.034866796299863834
aF-0.038662358961385049
aF-0.034607128931106269
aF-0.033737713990904666
aF0.084540090835238141
aF0.034946607998670366
aF-0.013324234760956059
aF-0.018619303834316116
aF0.054229849078932489
aF-0.021090329952042672
aF-0.032373540170452339
aF-0.033530008888614515
aF-0.032137595352788123
aF-0.021385564972308407
aF0.06406097153765028
aF0.0060831502750149317
aF0.0073282740555723619
aF0.016217026920541056
aa(lp22
F0.0037996871664981698
aF-2.5349381913876095e-07
aF-0.00012226450240264148
aF0.0070536225870010847
aF-0.003321137257678717
aF-0.003674922651830944
aF-0.0033067136830361708
aF-0.0032078569922560697
aF0.008023708777035116
aF0.0033371952579066329
aF-0.0012581546821406387
aF-0.001773841836601875
aF0.0051528130389856897
aF-0.002004631228130032
aF-0.003081355827382629
aF-0.0031936159555437187
aF-0.0030501466463891207
aF-0.0020266385411402193
aF0.0060831502750149317
aF0.00058022052394270638
aF0.00070158908724899196
aF0.0015363898792600361
aa(lp23
F0.0045912767126374673
aF-3.0526642715891454e-07
aF-0.00013766038447246033
aF0.0085031343737373422
aF-0.0040125322592059233
aF-0.0044311173123322027
aF-0.0040072746452010956
aF-0.0038691808227345591
aF0.0096611783252194341
aF0.004041889085640943
aF-0.0015074405173579452
aF-0.0021436595702531711
aF0.0062111791173717554
aF-0.0024170766153685341
aF-0.0037202057401672694
aF-0.0038583912261380077
aF-0.0036723695111407408
aF-0.0024364007322784723
aF0.0073282740555723619
aF0.00070158908724899196
aF0.00085152728678582537
aF0.0018467096701659767
aa(lp24
F0.010079064066545332
aF-6.7620215868832658e-07
aF-0.00036076391270913923
aF0.018783344073407586
aF-0.0088111331469617731
aF-0.0097820476920773905
aF-0.0087294996950832947
aF-0.0085344349816042931
aF0.021407689552398832
aF0.0088181935986882086
aF-0.0033838877692665688
aF-0.0047046008692996208
aF0.013723428724402655
aF-0.0053361763677319228
aF-0.0081845497105009629
aF-0.0084734597957189881
aF-0.0081383138743489607
aF-0.0054203316740750618
aF0.016217026920541056
aF0.0015363898792600361
aF0.0018467096701659767
aF0.0041108091824043329
aat.